target datalayout = "e-m:e-p270:32:32-p271:32:32-p272:64:64-i64:64-i128:128-f80:128-n8:16:32:64-S128"
target triple = "x86_64-pc-linux-gnu"

@.str = private unnamed_addr constant [13 x i8] c"new key req\0A\00", align 1
@.str.1 = private unnamed_addr constant [14 x i8] c"new key = %p\0A\00", align 1
@.str.2 = private unnamed_addr constant [13 x i8] c"free key %p\0A\00", align 1
@.str.3 = private unnamed_addr constant [62 x i8] c"../openssl/providers/implementations/keymgmt/template_kmgmt.c\00", align 1
@.str.35 = private unnamed_addr constant [19 x i8] c"dup called for %p\0A\00", align 1
@.str.36 = private unnamed_addr constant [16 x i8] c"dup returns %p\0A\00", align 1
@.str.37 = private unnamed_addr constant [18 x i8] c"dup returns NULL\0A\00", align 1

; Function Attrs: nounwind uwtable
define internal void @template_free(ptr noundef %0) #0 {
  %2 = alloca ptr, align 8
  store ptr %0, ptr %2, align 8, !tbaa !3
  %3 = load ptr, ptr %2, align 8, !tbaa !3
  call void (ptr, ...) @debug_print(ptr noundef @.str.2, ptr noundef %3)
  %4 = load ptr, ptr %2, align 8, !tbaa !3
  %5 = icmp eq ptr %4, null
  br i1 %5, label %6, label %7

6:                                                ; preds = %1
  br label %9

7:                                                ; preds = %1
  %8 = load ptr, ptr %2, align 8, !tbaa !3
  call void @CRYPTO_free(ptr noundef %8, ptr noundef @.str.3, i32 noundef 93)
  br label %9

9:                                                ; preds = %7, %6
  ret void
}

; Function Attrs: nounwind uwtable
define internal ptr @template_new(ptr noundef %0) #0 {
  %2 = alloca ptr, align 8
  %3 = alloca ptr, align 8
  %4 = alloca ptr, align 8
  %5 = alloca i32, align 4
  store ptr %0, ptr %3, align 8, !tbaa !3
  call void @llvm.lifetime.start.p0(i64 8, ptr %4) #4
  store ptr null, ptr %4, align 8, !tbaa !3
  call void (ptr, ...) @debug_print(ptr noundef @.str)
  %6 = call i32 @ossl_prov_is_running()
  %7 = icmp ne i32 %6, 0
  br i1 %7, label %9, label %8

8:                                                ; preds = %1
  store ptr null, ptr %2, align 8
  store i32 1, ptr %5, align 4
  br label %12

9:                                                ; preds = %1
  %10 = load ptr, ptr %4, align 8, !tbaa !3
  call void (ptr, ...) @debug_print(ptr noundef @.str.1, ptr noundef %10)
  %11 = load ptr, ptr %4, align 8, !tbaa !3
  store ptr %11, ptr %2, align 8
  store i32 1, ptr %5, align 4
  br label %12

12:                                               ; preds = %9, %8
  call void @llvm.lifetime.end.p0(i64 8, ptr %4) #4
  %13 = load ptr, ptr %2, align 8
  ret ptr %13
}

; Function Attrs: nounwind uwtable
define internal void @debug_print(ptr noundef %0, ...) #0 {
  %2 = alloca ptr, align 8
  store ptr %0, ptr %2, align 8, !tbaa !18
  ret void
}

; Function Attrs: nounwind uwtable
define internal ptr @template_dup(ptr noundef %0, i32 noundef %1) #0 {
  %3 = alloca ptr, align 8
  %4 = alloca ptr, align 8
  %5 = alloca i32, align 4
  %6 = alloca ptr, align 8
  %7 = alloca i32, align 4
  store ptr %0, ptr %4, align 8, !tbaa !3
  store i32 %1, ptr %5, align 4, !tbaa !9
  call void @llvm.lifetime.start.p0(i64 8, ptr %6) #4
  store ptr null, ptr %6, align 8, !tbaa !3
  %8 = load ptr, ptr %4, align 8, !tbaa !3
  call void (ptr, ...) @debug_print(ptr noundef @.str.35, ptr noundef %8)
  %9 = call i32 @ossl_prov_is_running()
  %10 = icmp ne i32 %9, 0
  br i1 %10, label %12, label %11

11:                                               ; preds = %2
  store ptr null, ptr %3, align 8
  store i32 1, ptr %7, align 4
  br label %22

12:                                               ; preds = %2
  %13 = call ptr @template_new(ptr noundef null)
  store ptr %13, ptr %6, align 8, !tbaa !3
  %14 = load ptr, ptr %6, align 8, !tbaa !3
  %15 = icmp eq ptr %14, null
  br i1 %15, label %16, label %17

16:                                               ; preds = %12
  br label %20

17:                                               ; preds = %12
  %18 = load ptr, ptr %6, align 8, !tbaa !3
  call void (ptr, ...) @debug_print(ptr noundef @.str.36, ptr noundef %18)
  %19 = load ptr, ptr %6, align 8, !tbaa !3
  store ptr %19, ptr %3, align 8
  store i32 1, ptr %7, align 4
  br label %22

20:                                               ; preds = %16
  %21 = load ptr, ptr %6, align 8, !tbaa !3
  call void @template_free(ptr noundef %21)
  call void (ptr, ...) @debug_print(ptr noundef @.str.37)
  store ptr null, ptr %3, align 8
  store i32 1, ptr %7, align 4
  br label %22

22:                                               ; preds = %20, %17, %11
  call void @llvm.lifetime.end.p0(i64 8, ptr %6) #4
  %23 = load ptr, ptr %3, align 8
  ret ptr %23
}