; Function Attrs: nounwind uwtable
define internal noalias noundef ptr @template_dup(ptr readnone captures(none) %0, i32 %1) #0 {
  %3 = tail call i32 @ossl_prov_is_running() #3
  %.not = icmp eq i32 %3, 0
  br i1 %.not, label %6, label %4

4:                                                ; preds = %2
  %5 = tail call i32 @ossl_prov_is_running() #3
  br label %6

6:                                                ; preds = %2, %4
  ret ptr null
}